target datalayout = "e-m:e-p270:32:32-p271:32:32-p272:64:64-i64:64-i128:128-f80:128-n8:16:32:64-S128"
target triple = "x86_64-pc-linux-gnu"

%"class.doctest::String" = type { %union.anon.7 }
%union.anon.7 = type { %"struct.doctest::String::view", [8 x i8] }
%"struct.doctest::String::view" = type { ptr, i32, i32 }
%"struct.doctest::detail::Result" = type { i8, %"class.doctest::String" }

@_ZN7doctest6StringC1ERKS0_ = dso_local unnamed_addr alias void (ptr, ptr), ptr @_ZN7doctest6StringC2ERKS0_

; Function Attrs: mustprogress uwtable
define dso_local void @_ZN7doctest6detail6ResultC2EbRKNS_6StringE(ptr noundef nonnull align 8 dereferenceable(32) %0, i1 noundef zeroext %1, ptr noundef nonnull align 8 dereferenceable(24) %2) unnamed_addr #8 align 2 {
  %4 = alloca ptr, align 8
  %5 = alloca i8, align 1
  %6 = alloca ptr, align 8
  store ptr %0, ptr %4, align 8, !tbaa !197
  %7 = zext i1 %1 to i8
  store i8 %7, ptr %5, align 1, !tbaa !16
  store ptr %2, ptr %6, align 8, !tbaa !59
  %8 = load ptr, ptr %4, align 8
  %9 = getelementptr inbounds nuw %"struct.doctest::detail::Result", ptr %8, i32 0, i32 0
  %10 = load i8, ptr %5, align 1, !tbaa !16, !range !36, !noundef !37
  %11 = trunc i8 %10 to i1
  %12 = zext i1 %11 to i8
  store i8 %12, ptr %9, align 8, !tbaa !199
  %13 = getelementptr inbounds nuw %"struct.doctest::detail::Result", ptr %8, i32 0, i32 1
  %14 = load ptr, ptr %6, align 8, !tbaa !59
  call void @_ZN7doctest6StringC1ERKS0_(ptr noundef nonnull align 8 dereferenceable(24) %13, ptr noundef nonnull align 8 dereferenceable(24) %14)
  ret void
}